; ModuleID = '36/386.c'
source_filename = "36/386.c"
target datalayout = "e-m:e-p270:32:32-p271:32:32-p272:64:64-i64:64-f80:128-n8:16:32:64-S128"
target triple = "x86_64-pc-linux-gnu"

@.str = private unnamed_addr constant [6 x i8] c"%s %s\00", align 1
@.str.1 = private unnamed_addr constant [4 x i8] c"YES\00", align 1
@.str.2 = private unnamed_addr constant [3 x i8] c"NO\00", align 1

; Function Attrs: noinline nounwind uwtable
define dso_local i32 @main() #0 {
  %1 = alloca i32, align 4
  %2 = alloca [100 x i8], align 16
  %3 = alloca [100 x i8], align 16
  %4 = alloca i8, align 1
  %5 = alloca i32, align 4
  %6 = alloca i32, align 4
  %7 = alloca i32, align 4
  %8 = alloca i32, align 4
  store i32 0, i32* %1, align 4
  %9 = getelementptr inbounds [100 x i8], [100 x i8]* %2, i64 0, i64 0
  %10 = getelementptr inbounds [100 x i8], [100 x i8]* %3, i64 0, i64 0
  %11 = call i32 (i8*, ...) @__isoc99_scanf(i8* getelementptr inbounds ([6 x i8], [6 x i8]* @.str, i64 0, i64 0), i8* %9, i8* %10)
  %12 = getelementptr inbounds [100 x i8], [100 x i8]* %2, i64 0, i64 0
  %13 = call i64 @strlen(i8* %12) #3
  %14 = trunc i64 %13 to i32
  store i32 %14, i32* %5, align 4
  %15 = getelementptr inbounds [100 x i8], [100 x i8]* %3, i64 0, i64 0
  %16 = call i64 @strlen(i8* %15) #3
  %17 = trunc i64 %16 to i32
  store i32 %17, i32* %6, align 4
  %18 = load i32, i32* %5, align 4
  %19 = load i32, i32* %6, align 4
  %20 = icmp eq i32 %18, %19
  br i1 %20, label %21, label %156

21:                                               ; preds = %0
  store i32 0, i32* %8, align 4
  br label %22

22:                                               ; preds = %69, %21
  %23 = load i32, i32* %8, align 4
  %24 = load i32, i32* %5, align 4
  %25 = icmp slt i32 %23, %24
  br i1 %25, label %26, label %72

26:                                               ; preds = %22
  store i32 0, i32* %7, align 4
  br label %27

27:                                               ; preds = %65, %26
  %28 = load i32, i32* %7, align 4
  %29 = load i32, i32* %5, align 4
  %30 = load i32, i32* %8, align 4
  %31 = sub nsw i32 %29, %30
  %32 = icmp slt i32 %28, %31
  br i1 %32, label %33, label %68

33:                                               ; preds = %27
  %34 = load i32, i32* %7, align 4
  %35 = sext i32 %34 to i64
  %36 = getelementptr inbounds [100 x i8], [100 x i8]* %2, i64 0, i64 %35
  %37 = load i8, i8* %36, align 1
  %38 = sext i8 %37 to i32
  %39 = load i32, i32* %7, align 4
  %40 = add nsw i32 %39, 1
  %41 = sext i32 %40 to i64
  %42 = getelementptr inbounds [100 x i8], [100 x i8]* %2, i64 0, i64 %41
  %43 = load i8, i8* %42, align 1
  %44 = sext i8 %43 to i32
  %45 = icmp sgt i32 %38, %44
  br i1 %45, label %46, label %64

46:                                               ; preds = %33
  %47 = load i32, i32* %7, align 4
  %48 = sext i32 %47 to i64
  %49 = getelementptr inbounds [100 x i8], [100 x i8]* %2, i64 0, i64 %48
  %50 = load i8, i8* %49, align 1
  store i8 %50, i8* %4, align 1
  %51 = load i32, i32* %7, align 4
  %52 = add nsw i32 %51, 1
  %53 = sext i32 %52 to i64
  %54 = getelementptr inbounds [100 x i8], [100 x i8]* %2, i64 0, i64 %53
  %55 = load i8, i8* %54, align 1
  %56 = load i32, i32* %7, align 4
  %57 = sext i32 %56 to i64
  %58 = getelementptr inbounds [100 x i8], [100 x i8]* %2, i64 0, i64 %57
  store i8 %55, i8* %58, align 1
  %59 = load i8, i8* %4, align 1
  %60 = load i32, i32* %7, align 4
  %61 = add nsw i32 %60, 1
  %62 = sext i32 %61 to i64
  %63 = getelementptr inbounds [100 x i8], [100 x i8]* %2, i64 0, i64 %62
  store i8 %59, i8* %63, align 1
  br label %64

64:                                               ; preds = %46, %33
  br label %65

65:                                               ; preds = %64
  %66 = load i32, i32* %7, align 4
  %67 = add nsw i32 %66, 1
  store i32 %67, i32* %7, align 4
  br label %27

68:                                               ; preds = %27
  br label %69

69:                                               ; preds = %68
  %70 = load i32, i32* %8, align 4
  %71 = add nsw i32 %70, 1
  store i32 %71, i32* %8, align 4
  br label %22

72:                                               ; preds = %22
  store i32 0, i32* %8, align 4
  br label %73

73:                                               ; preds = %120, %72
  %74 = load i32, i32* %8, align 4
  %75 = load i32, i32* %6, align 4
  %76 = icmp slt i32 %74, %75
  br i1 %76, label %77, label %123

77:                                               ; preds = %73
  store i32 0, i32* %7, align 4
  br label %78

78:                                               ; preds = %116, %77
  %79 = load i32, i32* %7, align 4
  %80 = load i32, i32* %6, align 4
  %81 = load i32, i32* %8, align 4
  %82 = sub nsw i32 %80, %81
  %83 = icmp slt i32 %79, %82
  br i1 %83, label %84, label %119

84:                                               ; preds = %78
  %85 = load i32, i32* %7, align 4
  %86 = sext i32 %85 to i64
  %87 = getelementptr inbounds [100 x i8], [100 x i8]* %3, i64 0, i64 %86
  %88 = load i8, i8* %87, align 1
  %89 = sext i8 %88 to i32
  %90 = load i32, i32* %7, align 4
  %91 = add nsw i32 %90, 1
  %92 = sext i32 %91 to i64
  %93 = getelementptr inbounds [100 x i8], [100 x i8]* %3, i64 0, i64 %92
  %94 = load i8, i8* %93, align 1
  %95 = sext i8 %94 to i32
  %96 = icmp sgt i32 %89, %95
  br i1 %96, label %97, label %115

97:                                               ; preds = %84
  %98 = load i32, i32* %7, align 4
  %99 = sext i32 %98 to i64
  %100 = getelementptr inbounds [100 x i8], [100 x i8]* %3, i64 0, i64 %99
  %101 = load i8, i8* %100, align 1
  store i8 %101, i8* %4, align 1
  %102 = load i32, i32* %7, align 4
  %103 = add nsw i32 %102, 1
  %104 = sext i32 %103 to i64
  %105 = getelementptr inbounds [100 x i8], [100 x i8]* %3, i64 0, i64 %104
  %106 = load i8, i8* %105, align 1
  %107 = load i32, i32* %7, align 4
  %108 = sext i32 %107 to i64
  %109 = getelementptr inbounds [100 x i8], [100 x i8]* %3, i64 0, i64 %108
  store i8 %106, i8* %109, align 1
  %110 = load i8, i8* %4, align 1
  %111 = load i32, i32* %7, align 4
  %112 = add nsw i32 %111, 1
  %113 = sext i32 %112 to i64
  %114 = getelementptr inbounds [100 x i8], [100 x i8]* %3, i64 0, i64 %113
  store i8 %110, i8* %114, align 1
  br label %115

115:                                              ; preds = %97, %84
  br label %116

116:                                              ; preds = %115
  %117 = load i32, i32* %7, align 4
  %118 = add nsw i32 %117, 1
  store i32 %118, i32* %7, align 4
  br label %78

119:                                              ; preds = %78
  br label %120

120:                                              ; preds = %119
  %121 = load i32, i32* %8, align 4
  %122 = add nsw i32 %121, 1
  store i32 %122, i32* %8, align 4
  br label %73

123:                                              ; preds = %73
  store i32 0, i32* %7, align 4
  store i32 0, i32* %8, align 4
  br label %124

124:                                              ; preds = %144, %123
  %125 = load i32, i32* %7, align 4
  %126 = load i32, i32* %5, align 4
  %127 = icmp slt i32 %125, %126
  br i1 %127, label %128, label %147

128:                                              ; preds = %124
  %129 = load i32, i32* %8, align 4
  %130 = add nsw i32 %129, 1
  store i32 %130, i32* %8, align 4
  %131 = load i32, i32* %7, align 4
  %132 = sext i32 %131 to i64
  %133 = getelementptr inbounds [100 x i8], [100 x i8]* %2, i64 0, i64 %132
  %134 = load i8, i8* %133, align 1
  %135 = sext i8 %134 to i32
  %136 = load i32, i32* %7, align 4
  %137 = sext i32 %136 to i64
  %138 = getelementptr inbounds [100 x i8], [100 x i8]* %3, i64 0, i64 %137
  %139 = load i8, i8* %138, align 1
  %140 = sext i8 %139 to i32
  %141 = icmp ne i32 %135, %140
  br i1 %141, label %142, label %143

142:                                              ; preds = %128
  br label %147

143:                                              ; preds = %128
  br label %144

144:                                              ; preds = %143
  %145 = load i32, i32* %7, align 4
  %146 = add nsw i32 %145, 1
  store i32 %146, i32* %7, align 4
  br label %124

147:                                              ; preds = %142, %124
  %148 = load i32, i32* %8, align 4
  %149 = load i32, i32* %5, align 4
  %150 = icmp sge i32 %148, %149
  br i1 %150, label %151, label %153

151:                                              ; preds = %147
  %152 = call i32 (i8*, ...) @printf(i8* getelementptr inbounds ([4 x i8], [4 x i8]* @.str.1, i64 0, i64 0))
  br label %155

153:                                              ; preds = %147
  %154 = call i32 (i8*, ...) @printf(i8* getelementptr inbounds ([3 x i8], [3 x i8]* @.str.2, i64 0, i64 0))
  br label %155

155:                                              ; preds = %153, %151
  br label %158

156:                                              ; preds = %0
  %157 = call i32 (i8*, ...) @printf(i8* getelementptr inbounds ([3 x i8], [3 x i8]* @.str.2, i64 0, i64 0))
  br label %158

158:                                              ; preds = %156, %155
  ret i32 0
}

declare dso_local i32 @__isoc99_scanf(i8*, ...) #1

; Function Attrs: nounwind readonly
declare dso_local i64 @strlen(i8*) #2

declare dso_local i32 @printf(i8*, ...) #1


!llvm.module.flags = !{!0}
!llvm.ident = !{!1}

!0 = !{i32 1, !"wchar_size", i32 4}
!1 = !{!"clang version 10.0.0-4ubuntu1 "}
